; Function Attrs: mustprogress uwtable
define noundef zeroext i1 @_ZN2cv15haveImageReaderERKNSt7__cxx1112basic_stringIcSt11char_traitsIcESaIcEEE(ptr noundef nonnull readonly align 8 captures(none) dereferenceable(32) %0) local_unnamed_addr #4 personality ptr @__gxx_personality_v0 {
  %2 = alloca %"struct.cv::Ptr.13", align 8
  call void @llvm.lifetime.start.p0(i64 16, ptr nonnull %2) #30
  call fastcc void @_ZN2cvL11findDecoderERKNSt7__cxx1112basic_stringIcSt11char_traitsIcESaIcEEE(ptr dead_on_unwind noalias writable align 8 %2, ptr noundef nonnull align 8 dereferenceable(32) %0)
  %3 = load ptr, ptr %2, align 8, !tbaa !14
  %4 = getelementptr inbounds nuw i8, ptr %2, i64 8
  %5 = load ptr, ptr %4, align 8, !tbaa !19
  %.not.i.i = icmp eq ptr %5, null
  br i1 %.not.i.i, label %_ZNSt12__shared_ptrIN2cv16BaseImageDecoderELN9__gnu_cxx12_Lock_policyE2EED2Ev.exit, label %6

6:                                                ; preds = %1
  %7 = getelementptr inbounds nuw i8, ptr %5, i64 8
  %8 = load atomic i64, ptr %7 acquire, align 8
  %9 = icmp eq i64 %8, 4294967297
  %10 = trunc i64 %8 to i32
  br i1 %9, label %11, label %19

11:                                               ; preds = %6
  store i32 0, ptr %7, align 8, !tbaa !22
  %12 = getelementptr inbounds nuw i8, ptr %5, i64 12
  store i32 0, ptr %12, align 4, !tbaa !24
  %13 = load ptr, ptr %5, align 8, !tbaa !25
  %14 = getelementptr inbounds nuw i8, ptr %13, i64 16
  %15 = load ptr, ptr %14, align 8
  call void %15(ptr noundef nonnull align 8 dereferenceable(16) %5) #30
  %16 = load ptr, ptr %5, align 8, !tbaa !25
  %17 = getelementptr inbounds nuw i8, ptr %16, i64 24
  %18 = load ptr, ptr %17, align 8
  call void %18(ptr noundef nonnull align 8 dereferenceable(16) %5) #30
  br label %_ZNSt12__shared_ptrIN2cv16BaseImageDecoderELN9__gnu_cxx12_Lock_policyE2EED2Ev.exit

19:                                               ; preds = %6
  %20 = load i8, ptr @__libc_single_threaded, align 1, !tbaa !20
  %.not.i.i.i = icmp eq i8 %20, 0
  br i1 %.not.i.i.i, label %23, label %21

21:                                               ; preds = %19
  %22 = add nsw i32 %10, -1
  store i32 %22, ptr %7, align 4, !tbaa !21
  br label %_ZN9__gnu_cxx27__exchange_and_add_dispatchEPii.exit.i.i.i

23:                                               ; preds = %19
  %24 = atomicrmw volatile add ptr %7, i32 -1 acq_rel, align 4
  br label %_ZN9__gnu_cxx27__exchange_and_add_dispatchEPii.exit.i.i.i

_ZN9__gnu_cxx27__exchange_and_add_dispatchEPii.exit.i.i.i: ; preds = %23, %21
  %.0.i.i.i.i = phi i32 [ %10, %21 ], [ %24, %23 ]
  %25 = icmp eq i32 %.0.i.i.i.i, 1
  br i1 %25, label %26, label %_ZNSt12__shared_ptrIN2cv16BaseImageDecoderELN9__gnu_cxx12_Lock_policyE2EED2Ev.exit, !prof !27

26:                                               ; preds = %_ZN9__gnu_cxx27__exchange_and_add_dispatchEPii.exit.i.i.i
  call void @_ZNSt16_Sp_counted_baseILN9__gnu_cxx12_Lock_policyE2EE24_M_release_last_use_coldEv(ptr noundef nonnull align 8 dereferenceable(16) %5) #30
  br label %_ZNSt12__shared_ptrIN2cv16BaseImageDecoderELN9__gnu_cxx12_Lock_policyE2EED2Ev.exit

_ZNSt12__shared_ptrIN2cv16BaseImageDecoderELN9__gnu_cxx12_Lock_policyE2EED2Ev.exit: ; preds = %1, %11, %_ZN9__gnu_cxx27__exchange_and_add_dispatchEPii.exit.i.i.i, %26
  %27 = icmp ne ptr %3, null
  call void @llvm.lifetime.end.p0(i64 16, ptr nonnull %2) #30
  ret i1 %27
}